; Function Attrs: cold nounwind optsize uwtable
define internal void @uninit(ptr noundef readonly captures(none) %0) #0 {
  %2 = getelementptr inbounds nuw i8, ptr %0, i64 72
  %3 = load ptr, ptr %2, align 8, !tbaa !4
  %4 = getelementptr inbounds nuw i8, ptr %3, i64 68
  %5 = load i32, ptr %4, align 4, !tbaa !34
  %.not = icmp eq i32 %5, 0
  br i1 %.not, label %6, label %8

6:                                                ; preds = %1
  %7 = getelementptr inbounds nuw i8, ptr %3, i64 88
  tail call void @ff_framesync_uninit(ptr noundef nonnull %7) #11
  br label %8

8:                                                ; preds = %6, %1
  ret void
}